target datalayout = "e-m:e-p270:32:32-p271:32:32-p272:64:64-i64:64-i128:128-f80:128-n8:16:32:64-S128"
target triple = "x86_64-pc-linux-gnu"

%struct.V360Context = type { ptr, i32, i32, i32, i32, i32, i32, i32, ptr, ptr, ptr, ptr, ptr, [6 x i32], [6 x i32], [6 x i32], [6 x i32], [3 x i32], i32, i32, float, float, i32, i32, float, float, float, float, float, i32, i32, i32, i32, i32, i32, i32, float, float, float, float, float, float, [2 x float], [2 x float], [2 x [4 x float]], [3 x float], i32, i32, i32, i32, [4 x i32], [4 x i32], [4 x i32], [4 x i32], [4 x i32], [4 x i32], [4 x i32], [4 x i32], [4 x i32], [4 x i32], [4 x i32], i32, i32, i32, i32, i32, i32, ptr, [4 x i32], ptr, ptr, ptr, ptr, ptr }

; Function Attrs: alwaysinline nounwind willreturn memory(none) uwtable
define internal i32 @av_clip_c(i32 noundef %0, i32 noundef %1, i32 noundef %2) #3 {
  %4 = alloca i32, align 4
  %5 = alloca i32, align 4
  %6 = alloca i32, align 4
  %7 = alloca i32, align 4
  store i32 %0, ptr %5, align 4, !tbaa !9
  store i32 %1, ptr %6, align 4, !tbaa !9
  store i32 %2, ptr %7, align 4, !tbaa !9
  %8 = load i32, ptr %5, align 4, !tbaa !9
  %9 = load i32, ptr %6, align 4, !tbaa !9
  %10 = icmp slt i32 %8, %9
  br i1 %10, label %11, label %13

11:                                               ; preds = %3
  %12 = load i32, ptr %6, align 4, !tbaa !9
  store i32 %12, ptr %4, align 4
  br label %21

13:                                               ; preds = %3
  %14 = load i32, ptr %5, align 4, !tbaa !9
  %15 = load i32, ptr %7, align 4, !tbaa !9
  %16 = icmp sgt i32 %14, %15
  br i1 %16, label %17, label %19

17:                                               ; preds = %13
  %18 = load i32, ptr %7, align 4, !tbaa !9
  store i32 %18, ptr %4, align 4
  br label %21

19:                                               ; preds = %13
  %20 = load i32, ptr %5, align 4, !tbaa !9
  store i32 %20, ptr %4, align 4
  br label %21

21:                                               ; preds = %19, %17, %11
  %22 = load i32, ptr %4, align 4
  ret i32 %22
}

; Function Attrs: nounwind uwtable
define internal i32 @xyz_to_cube1x6(ptr noundef %0, ptr noundef %1, i32 noundef %2, i32 noundef %3, ptr noundef %4, ptr noundef %5, ptr noundef %6, ptr noundef %7) #0 {
  %9 = alloca ptr, align 8
  %10 = alloca ptr, align 8
  %11 = alloca i32, align 4
  %12 = alloca i32, align 4
  %13 = alloca ptr, align 8
  %14 = alloca ptr, align 8
  %15 = alloca ptr, align 8
  %16 = alloca ptr, align 8
  %17 = alloca float, align 4
  %18 = alloca float, align 4
  %19 = alloca float, align 4
  %20 = alloca i32, align 4
  %21 = alloca float, align 4
  %22 = alloca float, align 4
  %23 = alloca i32, align 4
  %24 = alloca i32, align 4
  %25 = alloca i32, align 4
  %26 = alloca i32, align 4
  %27 = alloca i32, align 4
  %28 = alloca i32, align 4
  %29 = alloca i32, align 4
  %30 = alloca i32, align 4
  %31 = alloca i32, align 4
  %32 = alloca i32, align 4
  %33 = alloca i32, align 4
  %34 = alloca i32, align 4
  store ptr %0, ptr %9, align 8, !tbaa !4
  store ptr %1, ptr %10, align 8, !tbaa !188
  store i32 %2, ptr %11, align 4, !tbaa !9
  store i32 %3, ptr %12, align 4, !tbaa !9
  store ptr %4, ptr %13, align 8, !tbaa !21
  store ptr %5, ptr %14, align 8, !tbaa !21
  store ptr %6, ptr %15, align 8, !tbaa !188
  store ptr %7, ptr %16, align 8, !tbaa !188
  call void @llvm.lifetime.start.p0(i64 4, ptr %17) #13
  %35 = load ptr, ptr %9, align 8, !tbaa !4
  %36 = getelementptr inbounds nuw %struct.V360Context, ptr %35, i32 0, i32 22
  %37 = load i32, ptr %36, align 4, !tbaa !192
  %38 = icmp sgt i32 %37, 0
  br i1 %38, label %39, label %48

39:                                               ; preds = %8
  %40 = load ptr, ptr %9, align 8, !tbaa !4
  %41 = getelementptr inbounds nuw %struct.V360Context, ptr %40, i32 0, i32 22
  %42 = load i32, ptr %41, align 4, !tbaa !192
  %43 = sitofp i32 %42 to float
  %44 = load i32, ptr %11, align 4, !tbaa !9
  %45 = sitofp i32 %44 to float
  %46 = fdiv nsz float %43, %45
  %47 = fsub nsz float 1.000000e+00, %46
  br label %53

48:                                               ; preds = %8
  %49 = load ptr, ptr %9, align 8, !tbaa !4
  %50 = getelementptr inbounds nuw %struct.V360Context, ptr %49, i32 0, i32 20
  %51 = load float, ptr %50, align 4, !tbaa !193
  %52 = fsub nsz float 1.000000e+00, %51
  br label %53

53:                                               ; preds = %48, %39
  %54 = phi nsz float [ %47, %39 ], [ %52, %48 ]
  store float %54, ptr %17, align 4, !tbaa !99
  call void @llvm.lifetime.start.p0(i64 4, ptr %18) #13
  %55 = load ptr, ptr %9, align 8, !tbaa !4
  %56 = getelementptr inbounds nuw %struct.V360Context, ptr %55, i32 0, i32 22
  %57 = load i32, ptr %56, align 4, !tbaa !192
  %58 = icmp sgt i32 %57, 0
  br i1 %58, label %59, label %69

59:                                               ; preds = %53
  %60 = load ptr, ptr %9, align 8, !tbaa !4
  %61 = getelementptr inbounds nuw %struct.V360Context, ptr %60, i32 0, i32 22
  %62 = load i32, ptr %61, align 4, !tbaa !192
  %63 = sitofp i32 %62 to float
  %64 = load i32, ptr %12, align 4, !tbaa !9
  %65 = sitofp i32 %64 to float
  %66 = fdiv nsz float %65, 6.000000e+00
  %67 = fdiv nsz float %63, %66
  %68 = fsub nsz float 1.000000e+00, %67
  br label %74

69:                                               ; preds = %53
  %70 = load ptr, ptr %9, align 8, !tbaa !4
  %71 = getelementptr inbounds nuw %struct.V360Context, ptr %70, i32 0, i32 20
  %72 = load float, ptr %71, align 4, !tbaa !193
  %73 = fsub nsz float 1.000000e+00, %72
  br label %74

74:                                               ; preds = %69, %59
  %75 = phi nsz float [ %68, %59 ], [ %73, %69 ]
  store float %75, ptr %18, align 4, !tbaa !99
  call void @llvm.lifetime.start.p0(i64 4, ptr %19) #13
  %76 = load i32, ptr %12, align 4, !tbaa !9
  %77 = sitofp i32 %76 to float
  %78 = fdiv nsz float %77, 6.000000e+00
  store float %78, ptr %19, align 4, !tbaa !99
  call void @llvm.lifetime.start.p0(i64 4, ptr %20) #13
  %79 = load i32, ptr %11, align 4, !tbaa !9
  store i32 %79, ptr %20, align 4, !tbaa !9
  call void @llvm.lifetime.start.p0(i64 4, ptr %21) #13
  call void @llvm.lifetime.start.p0(i64 4, ptr %22) #13
  call void @llvm.lifetime.start.p0(i64 4, ptr %23) #13
  call void @llvm.lifetime.start.p0(i64 4, ptr %24) #13
  call void @llvm.lifetime.start.p0(i64 4, ptr %25) #13
  call void @llvm.lifetime.start.p0(i64 4, ptr %26) #13
  call void @llvm.lifetime.start.p0(i64 4, ptr %27) #13
  %80 = load ptr, ptr %9, align 8, !tbaa !4
  %81 = load ptr, ptr %10, align 8, !tbaa !188
  call void @xyz_to_cube(ptr noundef %80, ptr noundef %81, ptr noundef %21, ptr noundef %22, ptr noundef %26)
  %82 = load float, ptr %17, align 4, !tbaa !99
  %83 = load float, ptr %21, align 4, !tbaa !99
  %84 = fmul nsz float %83, %82
  store float %84, ptr %21, align 4, !tbaa !99
  %85 = load float, ptr %18, align 4, !tbaa !99
  %86 = load float, ptr %22, align 4, !tbaa !99
  %87 = fmul nsz float %86, %85
  store float %87, ptr %22, align 4, !tbaa !99
  %88 = load ptr, ptr %9, align 8, !tbaa !4
  %89 = getelementptr inbounds nuw %struct.V360Context, ptr %88, i32 0, i32 13
  %90 = load i32, ptr %26, align 4, !tbaa !9
  %91 = sext i32 %90 to i64
  %92 = getelementptr inbounds [6 x i32], ptr %89, i64 0, i64 %91
  %93 = load i32, ptr %92, align 4, !tbaa !9
  store i32 %93, ptr %27, align 4, !tbaa !9
  %94 = load float, ptr %19, align 4, !tbaa !99
  %95 = load i32, ptr %27, align 4, !tbaa !9
  %96 = add nsw i32 %95, 1
  %97 = sitofp i32 %96 to float
  %98 = fmul nsz float %94, %97
  %99 = call nsz float @llvm.ceil.f32(float %98)
  %100 = load float, ptr %19, align 4, !tbaa !99
  %101 = load i32, ptr %27, align 4, !tbaa !9
  %102 = sitofp i32 %101 to float
  %103 = fmul nsz float %100, %102
  %104 = call nsz float @llvm.ceil.f32(float %103)
  %105 = fsub nsz float %99, %104
  %106 = fptosi float %105 to i32
  store i32 %106, ptr %25, align 4, !tbaa !9
  %107 = load i32, ptr %20, align 4, !tbaa !9
  %108 = sitofp i32 %107 to float
  %109 = fmul nsz float 5.000000e-01, %108
  %110 = load float, ptr %21, align 4, !tbaa !99
  %111 = fadd nsz float %110, 1.000000e+00
  %112 = call nsz float @llvm.fmuladd.f32(float %109, float %111, float -5.000000e-01)
  store float %112, ptr %21, align 4, !tbaa !99
  %113 = load i32, ptr %25, align 4, !tbaa !9
  %114 = sitofp i32 %113 to float
  %115 = fmul nsz float 5.000000e-01, %114
  %116 = load float, ptr %22, align 4, !tbaa !99
  %117 = fadd nsz float %116, 1.000000e+00
  %118 = call nsz float @llvm.fmuladd.f32(float %115, float %117, float -5.000000e-01)
  store float %118, ptr %22, align 4, !tbaa !99
  %119 = load float, ptr %21, align 4, !tbaa !99
  %120 = call nsz float @llvm.floor.f32(float %119)
  %121 = fptosi float %120 to i32
  store i32 %121, ptr %23, align 4, !tbaa !9
  %122 = load float, ptr %22, align 4, !tbaa !99
  %123 = call nsz float @llvm.floor.f32(float %122)
  %124 = fptosi float %123 to i32
  store i32 %124, ptr %24, align 4, !tbaa !9
  %125 = load float, ptr %21, align 4, !tbaa !99
  %126 = load i32, ptr %23, align 4, !tbaa !9
  %127 = sitofp i32 %126 to float
  %128 = fsub nsz float %125, %127
  %129 = load ptr, ptr %15, align 8, !tbaa !188
  store float %128, ptr %129, align 4, !tbaa !99
  %130 = load float, ptr %22, align 4, !tbaa !99
  %131 = load i32, ptr %24, align 4, !tbaa !9
  %132 = sitofp i32 %131 to float
  %133 = fsub nsz float %130, %132
  %134 = load ptr, ptr %16, align 8, !tbaa !188
  store float %133, ptr %134, align 4, !tbaa !99
  call void @llvm.lifetime.start.p0(i64 4, ptr %28) #13
  store i32 0, ptr %28, align 4, !tbaa !9
  br label %135

135:                                              ; preds = %273, %74
  %136 = load i32, ptr %28, align 4, !tbaa !9
  %137 = icmp slt i32 %136, 4
  br i1 %137, label %139, label %138

138:                                              ; preds = %135
  store i32 2, ptr %29, align 4
  call void @llvm.lifetime.end.p0(i64 4, ptr %28) #13
  br label %276

139:                                              ; preds = %135
  call void @llvm.lifetime.start.p0(i64 4, ptr %30) #13
  store i32 0, ptr %30, align 4, !tbaa !9
  br label %140

140:                                              ; preds = %269, %139
  %141 = load i32, ptr %30, align 4, !tbaa !9
  %142 = icmp slt i32 %141, 4
  br i1 %142, label %144, label %143

143:                                              ; preds = %140
  store i32 5, ptr %29, align 4
  call void @llvm.lifetime.end.p0(i64 4, ptr %30) #13
  br label %272

144:                                              ; preds = %140
  call void @llvm.lifetime.start.p0(i64 4, ptr %31) #13
  %145 = load i32, ptr %23, align 4, !tbaa !9
  %146 = load i32, ptr %30, align 4, !tbaa !9
  %147 = add nsw i32 %145, %146
  %148 = sub nsw i32 %147, 1
  store i32 %148, ptr %31, align 4, !tbaa !9
  call void @llvm.lifetime.start.p0(i64 4, ptr %32) #13
  %149 = load i32, ptr %24, align 4, !tbaa !9
  %150 = load i32, ptr %28, align 4, !tbaa !9
  %151 = add nsw i32 %149, %150
  %152 = sub nsw i32 %151, 1
  store i32 %152, ptr %32, align 4, !tbaa !9
  call void @llvm.lifetime.start.p0(i64 4, ptr %33) #13
  call void @llvm.lifetime.start.p0(i64 4, ptr %34) #13
  %153 = load i32, ptr %31, align 4, !tbaa !9
  %154 = icmp sge i32 %153, 0
  br i1 %154, label %155, label %179

155:                                              ; preds = %144
  %156 = load i32, ptr %31, align 4, !tbaa !9
  %157 = load i32, ptr %20, align 4, !tbaa !9
  %158 = icmp slt i32 %156, %157
  br i1 %158, label %159, label %179

159:                                              ; preds = %155
  %160 = load i32, ptr %32, align 4, !tbaa !9
  %161 = icmp sge i32 %160, 0
  br i1 %161, label %162, label %179

162:                                              ; preds = %159
  %163 = load i32, ptr %32, align 4, !tbaa !9
  %164 = load i32, ptr %25, align 4, !tbaa !9
  %165 = icmp slt i32 %163, %164
  br i1 %165, label %166, label %179

166:                                              ; preds = %162
  %167 = load ptr, ptr %9, align 8, !tbaa !4
  %168 = getelementptr inbounds nuw %struct.V360Context, ptr %167, i32 0, i32 13
  %169 = load i32, ptr %26, align 4, !tbaa !9
  %170 = sext i32 %169 to i64
  %171 = getelementptr inbounds [6 x i32], ptr %168, i64 0, i64 %170
  %172 = load i32, ptr %171, align 4, !tbaa !9
  store i32 %172, ptr %27, align 4, !tbaa !9
  %173 = load float, ptr %19, align 4, !tbaa !99
  %174 = load i32, ptr %27, align 4, !tbaa !9
  %175 = sitofp i32 %174 to float
  %176 = fmul nsz float %173, %175
  %177 = call nsz float @llvm.ceil.f32(float %176)
  %178 = fptosi float %177 to i32
  store i32 %178, ptr %33, align 4, !tbaa !9
  br label %248

179:                                              ; preds = %162, %159, %155, %144
  %180 = load i32, ptr %31, align 4, !tbaa !9
  %181 = sitofp i32 %180 to float
  %182 = fmul nsz float 2.000000e+00, %181
  %183 = load i32, ptr %20, align 4, !tbaa !9
  %184 = sitofp i32 %183 to float
  %185 = fdiv nsz float %182, %184
  %186 = fsub nsz float %185, 1.000000e+00
  store float %186, ptr %21, align 4, !tbaa !99
  %187 = load i32, ptr %32, align 4, !tbaa !9
  %188 = sitofp i32 %187 to float
  %189 = fmul nsz float 2.000000e+00, %188
  %190 = load i32, ptr %25, align 4, !tbaa !9
  %191 = sitofp i32 %190 to float
  %192 = fdiv nsz float %189, %191
  %193 = fsub nsz float %192, 1.000000e+00
  store float %193, ptr %22, align 4, !tbaa !99
  %194 = load float, ptr %17, align 4, !tbaa !99
  %195 = load float, ptr %21, align 4, !tbaa !99
  %196 = fdiv nsz float %195, %194
  store float %196, ptr %21, align 4, !tbaa !99
  %197 = load float, ptr %18, align 4, !tbaa !99
  %198 = load float, ptr %22, align 4, !tbaa !99
  %199 = fdiv nsz float %198, %197
  store float %199, ptr %22, align 4, !tbaa !99
  %200 = load ptr, ptr %9, align 8, !tbaa !4
  %201 = load float, ptr %21, align 4, !tbaa !99
  %202 = load float, ptr %22, align 4, !tbaa !99
  %203 = load i32, ptr %26, align 4, !tbaa !9
  call void @process_cube_coordinates(ptr noundef %200, float noundef %201, float noundef %202, i32 noundef %203, ptr noundef %21, ptr noundef %22, ptr noundef %27)
  %204 = load float, ptr %17, align 4, !tbaa !99
  %205 = load float, ptr %21, align 4, !tbaa !99
  %206 = fmul nsz float %205, %204
  store float %206, ptr %21, align 4, !tbaa !99
  %207 = load float, ptr %18, align 4, !tbaa !99
  %208 = load float, ptr %22, align 4, !tbaa !99
  %209 = fmul nsz float %208, %207
  store float %209, ptr %22, align 4, !tbaa !99
  %210 = load float, ptr %19, align 4, !tbaa !99
  %211 = load i32, ptr %27, align 4, !tbaa !9
  %212 = sitofp i32 %211 to float
  %213 = fmul nsz float %210, %212
  %214 = call nsz float @llvm.ceil.f32(float %213)
  %215 = fptosi float %214 to i32
  store i32 %215, ptr %33, align 4, !tbaa !9
  %216 = load float, ptr %19, align 4, !tbaa !99
  %217 = load i32, ptr %27, align 4, !tbaa !9
  %218 = add nsw i32 %217, 1
  %219 = sitofp i32 %218 to float
  %220 = fmul nsz float %216, %219
  %221 = call nsz float @llvm.ceil.f32(float %220)
  %222 = load i32, ptr %33, align 4, !tbaa !9
  %223 = sitofp i32 %222 to float
  %224 = fsub nsz float %221, %223
  %225 = fptosi float %224 to i32
  store i32 %225, ptr %34, align 4, !tbaa !9
  %226 = load i32, ptr %20, align 4, !tbaa !9
  %227 = sitofp i32 %226 to float
  %228 = fmul nsz float 5.000000e-01, %227
  %229 = load float, ptr %21, align 4, !tbaa !99
  %230 = fadd nsz float %229, 1.000000e+00
  %231 = fmul nsz float %228, %230
  %232 = call i64 @llvm.lrint.i64.f32(float %231)
  %233 = trunc i64 %232 to i32
  %234 = load i32, ptr %20, align 4, !tbaa !9
  %235 = sub nsw i32 %234, 1
  %236 = call i32 @av_clip_c(i32 noundef %233, i32 noundef 0, i32 noundef %235) #14
  store i32 %236, ptr %31, align 4, !tbaa !9
  %237 = load i32, ptr %34, align 4, !tbaa !9
  %238 = sitofp i32 %237 to float
  %239 = fmul nsz float 5.000000e-01, %238
  %240 = load float, ptr %22, align 4, !tbaa !99
  %241 = fadd nsz float %240, 1.000000e+00
  %242 = fmul nsz float %239, %241
  %243 = call i64 @llvm.lrint.i64.f32(float %242)
  %244 = trunc i64 %243 to i32
  %245 = load i32, ptr %34, align 4, !tbaa !9
  %246 = sub nsw i32 %245, 1
  %247 = call i32 @av_clip_c(i32 noundef %244, i32 noundef 0, i32 noundef %246) #14
  store i32 %247, ptr %32, align 4, !tbaa !9
  br label %248

248:                                              ; preds = %179, %166
  %249 = load i32, ptr %31, align 4, !tbaa !9
  %250 = trunc i32 %249 to i16
  %251 = load ptr, ptr %13, align 8, !tbaa !21
  %252 = load i32, ptr %28, align 4, !tbaa !9
  %253 = sext i32 %252 to i64
  %254 = getelementptr inbounds [4 x i16], ptr %251, i64 %253
  %255 = load i32, ptr %30, align 4, !tbaa !9
  %256 = sext i32 %255 to i64
  %257 = getelementptr inbounds [4 x i16], ptr %254, i64 0, i64 %256
  store i16 %250, ptr %257, align 2, !tbaa !23
  %258 = load i32, ptr %33, align 4, !tbaa !9
  %259 = load i32, ptr %32, align 4, !tbaa !9
  %260 = add nsw i32 %258, %259
  %261 = trunc i32 %260 to i16
  %262 = load ptr, ptr %14, align 8, !tbaa !21
  %263 = load i32, ptr %28, align 4, !tbaa !9
  %264 = sext i32 %263 to i64
  %265 = getelementptr inbounds [4 x i16], ptr %262, i64 %264
  %266 = load i32, ptr %30, align 4, !tbaa !9
  %267 = sext i32 %266 to i64
  %268 = getelementptr inbounds [4 x i16], ptr %265, i64 0, i64 %267
  store i16 %261, ptr %268, align 2, !tbaa !23
  call void @llvm.lifetime.end.p0(i64 4, ptr %34) #13
  call void @llvm.lifetime.end.p0(i64 4, ptr %33) #13
  call void @llvm.lifetime.end.p0(i64 4, ptr %32) #13
  call void @llvm.lifetime.end.p0(i64 4, ptr %31) #13
  br label %269

269:                                              ; preds = %248
  %270 = load i32, ptr %30, align 4, !tbaa !9
  %271 = add nsw i32 %270, 1
  store i32 %271, ptr %30, align 4, !tbaa !9
  br label %140, !llvm.loop !200

272:                                              ; preds = %143
  br label %273

273:                                              ; preds = %272
  %274 = load i32, ptr %28, align 4, !tbaa !9
  %275 = add nsw i32 %274, 1
  store i32 %275, ptr %28, align 4, !tbaa !9
  br label %135, !llvm.loop !201

276:                                              ; preds = %138
  store i32 1, ptr %29, align 4
  call void @llvm.lifetime.end.p0(i64 4, ptr %27) #13
  call void @llvm.lifetime.end.p0(i64 4, ptr %26) #13
  call void @llvm.lifetime.end.p0(i64 4, ptr %25) #13
  call void @llvm.lifetime.end.p0(i64 4, ptr %24) #13
  call void @llvm.lifetime.end.p0(i64 4, ptr %23) #13
  call void @llvm.lifetime.end.p0(i64 4, ptr %22) #13
  call void @llvm.lifetime.end.p0(i64 4, ptr %21) #13
  call void @llvm.lifetime.end.p0(i64 4, ptr %20) #13
  call void @llvm.lifetime.end.p0(i64 4, ptr %19) #13
  call void @llvm.lifetime.end.p0(i64 4, ptr %18) #13
  call void @llvm.lifetime.end.p0(i64 4, ptr %17) #13
  ret i32 1
}