; Function Attrs: nounwind uwtable
define internal noundef i32 @xyz_to_cube1x6(ptr noundef readonly captures(none) %0, ptr noundef readonly captures(none) %1, i32 noundef %2, i32 noundef %3, ptr noundef writeonly captures(none) %4, ptr noundef writeonly captures(none) %5, ptr noundef writeonly captures(none) initializes((0, 4)) %6, ptr noundef writeonly captures(none) initializes((0, 4)) %7) #4 {
  %9 = alloca float, align 4
  %10 = alloca float, align 4
  %11 = alloca i32, align 4
  %12 = alloca i32, align 4
  %13 = getelementptr inbounds nuw i8, ptr %0, i64 204
  %14 = load i32, ptr %13, align 4, !tbaa !181
  %15 = icmp sgt i32 %14, 0
  br i1 %15, label %16, label %23

16:                                               ; preds = %8
  %17 = uitofp nneg i32 %14 to float
  %18 = sitofp i32 %2 to float
  %19 = fdiv nsz float %17, %18
  %20 = sitofp i32 %3 to float
  %21 = fdiv nsz float %20, 6.000000e+00
  %22 = fdiv nsz float %17, %21
  br label %26

23:                                               ; preds = %8
  %24 = getelementptr inbounds nuw i8, ptr %0, i64 196
  %25 = load float, ptr %24, align 4, !tbaa !182
  %.pre = sitofp i32 %3 to float
  %.pre87 = fdiv nsz float %.pre, 6.000000e+00
  %.pre89 = sitofp i32 %2 to float
  br label %26

26:                                               ; preds = %23, %16
  %.pre-phi90 = phi float [ %.pre89, %23 ], [ %18, %16 ]
  %.pre-phi88 = phi float [ %.pre87, %23 ], [ %21, %16 ]
  %.pn = phi float [ %25, %23 ], [ %19, %16 ]
  %.pn72 = phi float [ %25, %23 ], [ %22, %16 ]
  %27 = fsub nsz float 1.000000e+00, %.pn
  %28 = fsub nsz float 1.000000e+00, %.pn72
  call void @llvm.lifetime.start.p0(i64 4, ptr nonnull %9) #16
  call void @llvm.lifetime.start.p0(i64 4, ptr nonnull %10) #16
  call void @llvm.lifetime.start.p0(i64 4, ptr nonnull %11) #16
  call void @llvm.lifetime.start.p0(i64 4, ptr nonnull %12) #16
  call fastcc void @xyz_to_cube(ptr noundef nonnull %0, ptr noundef %1, ptr noundef %9, ptr noundef %10, ptr noundef %11)
  %29 = load float, ptr %9, align 4, !tbaa !49
  %30 = fmul nsz float %27, %29
  %31 = load float, ptr %10, align 4, !tbaa !49
  %32 = fmul nsz float %28, %31
  %33 = getelementptr inbounds nuw i8, ptr %0, i64 80
  %34 = load i32, ptr %11, align 4, !tbaa !90
  %35 = sext i32 %34 to i64
  %36 = getelementptr inbounds [6 x i32], ptr %33, i64 0, i64 %35
  %37 = load i32, ptr %36, align 4, !tbaa !90
  %38 = add nsw i32 %37, 1
  %39 = sitofp i32 %38 to float
  %40 = fmul nsz float %.pre-phi88, %39
  %41 = tail call nsz float @llvm.ceil.f32(float %40)
  %42 = sitofp i32 %37 to float
  %43 = fmul nsz float %.pre-phi88, %42
  %44 = tail call nsz float @llvm.ceil.f32(float %43)
  %45 = fsub nsz float %41, %44
  %46 = fptosi float %45 to i32
  %47 = fmul nsz float %.pre-phi90, 5.000000e-01
  %48 = fadd nsz float %30, 1.000000e+00
  %49 = tail call nsz float @llvm.fmuladd.f32(float %47, float %48, float -5.000000e-01)
  %50 = sitofp i32 %46 to float
  %51 = fmul nsz float %50, 5.000000e-01
  %52 = fadd nsz float %32, 1.000000e+00
  %53 = tail call nsz float @llvm.fmuladd.f32(float %51, float %52, float -5.000000e-01)
  %54 = tail call nsz float @llvm.floor.f32(float %49)
  %55 = fptosi float %54 to i32
  %56 = tail call nsz float @llvm.floor.f32(float %53)
  %57 = fptosi float %56 to i32
  %58 = sitofp i32 %55 to float
  %59 = fsub nsz float %49, %58
  store float %59, ptr %6, align 4, !tbaa !49
  %60 = sitofp i32 %57 to float
  %61 = fsub nsz float %53, %60
  store float %61, ptr %7, align 4, !tbaa !49
  %62 = add nsw i32 %2, -1
  %63 = sext i32 %55 to i64
  %64 = sext i32 %2 to i64
  %65 = sext i32 %57 to i64
  %66 = sext i32 %46 to i64
  br label %.preheader

.preheader:                                       ; preds = %26, %77
  %indvars.iv83 = phi i64 [ 0, %26 ], [ %indvars.iv.next84, %77 ]
  %67 = add nsw i64 %indvars.iv83, %65
  %68 = icmp slt i64 %67, 1
  %.not = icmp sgt i64 %67, %66
  %69 = trunc i64 %67 to i32
  %70 = add i32 %69, -1
  %71 = sitofp i32 %70 to float
  %72 = fmul nsz float %71, 2.000000e+00
  %73 = fdiv nsz float %72, %50
  %74 = fadd nsz float %73, -1.000000e+00
  %75 = fdiv nsz float %74, %28
  br label %78

76:                                               ; preds = %77
  call void @llvm.lifetime.end.p0(i64 4, ptr nonnull %12) #16
  call void @llvm.lifetime.end.p0(i64 4, ptr nonnull %11) #16
  call void @llvm.lifetime.end.p0(i64 4, ptr nonnull %10) #16
  call void @llvm.lifetime.end.p0(i64 4, ptr nonnull %9) #16
  ret i32 1

77:                                               ; preds = %127
  %indvars.iv.next84 = add nuw nsw i64 %indvars.iv83, 1
  %exitcond86.not = icmp eq i64 %indvars.iv.next84, 4
  br i1 %exitcond86.not, label %76, label %.preheader, !llvm.loop !189

78:                                               ; preds = %.preheader, %127
  %indvars.iv = phi i64 [ 0, %.preheader ], [ %indvars.iv.next, %127 ]
  %79 = add nsw i64 %indvars.iv, %63
  %80 = add nsw i64 %79, -1
  %81 = icmp sgt i64 %79, 0
  br i1 %81, label %82, label %91

82:                                               ; preds = %78
  %83 = icmp sgt i64 %79, %64
  %or.cond.not79 = select i1 %83, i1 true, i1 %68
  %or.cond73 = select i1 %or.cond.not79, i1 true, i1 %.not
  br i1 %or.cond73, label %91, label %84

84:                                               ; preds = %82
  %85 = load i32, ptr %36, align 4, !tbaa !90
  store i32 %85, ptr %12, align 4, !tbaa !90
  %86 = sitofp i32 %85 to float
  %87 = fmul nsz float %.pre-phi88, %86
  %88 = tail call nsz float @llvm.ceil.f32(float %87)
  %89 = fptosi float %88 to i32
  %90 = trunc nsw i64 %80 to i32
  br label %127

91:                                               ; preds = %82, %78
  %92 = trunc nsw i64 %80 to i32
  %93 = sitofp i32 %92 to float
  %94 = fmul nsz float %93, 2.000000e+00
  %95 = fdiv nsz float %94, %.pre-phi90
  %96 = fadd nsz float %95, -1.000000e+00
  %97 = fdiv nsz float %96, %27
  store float %97, ptr %9, align 4, !tbaa !49
  store float %75, ptr %10, align 4, !tbaa !49
  call fastcc void @process_cube_coordinates(ptr noundef nonnull %0, float noundef %97, float noundef %75, i32 noundef %34, ptr noundef %9, ptr noundef %10, ptr noundef %12)
  %98 = load float, ptr %9, align 4, !tbaa !49
  %99 = fmul nsz float %27, %98
  store float %99, ptr %9, align 4, !tbaa !49
  %100 = load float, ptr %10, align 4, !tbaa !49
  %101 = fmul nsz float %28, %100
  store float %101, ptr %10, align 4, !tbaa !49
  %102 = load i32, ptr %12, align 4, !tbaa !90
  %103 = sitofp i32 %102 to float
  %104 = fmul nsz float %.pre-phi88, %103
  %105 = tail call nsz float @llvm.ceil.f32(float %104)
  %106 = fptosi float %105 to i32
  %107 = add nsw i32 %102, 1
  %108 = sitofp i32 %107 to float
  %109 = fmul nsz float %.pre-phi88, %108
  %110 = tail call nsz float @llvm.ceil.f32(float %109)
  %111 = sitofp i32 %106 to float
  %112 = fsub nsz float %110, %111
  %113 = fptosi float %112 to i32
  %114 = fadd nsz float %99, 1.000000e+00
  %115 = fmul nsz float %47, %114
  %116 = tail call i64 @llvm.lrint.i64.f32(float %115)
  %117 = trunc i64 %116 to i32
  %118 = icmp slt i32 %117, 0
  %..i = tail call i32 @llvm.smin.i32(i32 %62, i32 %117)
  %.0.i = select i1 %118, i32 0, i32 %..i
  %119 = sitofp i32 %113 to float
  %120 = fmul nsz float %119, 5.000000e-01
  %121 = fadd nsz float %101, 1.000000e+00
  %122 = fmul nsz float %121, %120
  %123 = tail call i64 @llvm.lrint.i64.f32(float %122)
  %124 = trunc i64 %123 to i32
  %125 = add nsw i32 %113, -1
  %126 = icmp slt i32 %124, 0
  %..i74 = tail call i32 @llvm.smin.i32(i32 %125, i32 %124)
  %.0.i75 = select i1 %126, i32 0, i32 %..i74
  br label %127

127:                                              ; preds = %91, %84
  %.066 = phi i32 [ %90, %84 ], [ %.0.i, %91 ]
  %.065 = phi i32 [ %70, %84 ], [ %.0.i75, %91 ]
  %.064 = phi i32 [ %89, %84 ], [ %106, %91 ]
  %128 = trunc i32 %.066 to i16
  %129 = getelementptr inbounds nuw [4 x i16], ptr %4, i64 %indvars.iv83, i64 %indvars.iv
  store i16 %128, ptr %129, align 2, !tbaa !15
  %130 = add nsw i32 %.064, %.065
  %131 = trunc i32 %130 to i16
  %132 = getelementptr inbounds nuw [4 x i16], ptr %5, i64 %indvars.iv83, i64 %indvars.iv
  store i16 %131, ptr %132, align 2, !tbaa !15
  %indvars.iv.next = add nuw nsw i64 %indvars.iv, 1
  %exitcond.not = icmp eq i64 %indvars.iv.next, 4
  br i1 %exitcond.not, label %77, label %78, !llvm.loop !190
}